target datalayout = "e-m:e-p270:32:32-p271:32:32-p272:64:64-i64:64-i128:128-f80:128-n8:16:32:64-S128"
target triple = "x86_64-pc-linux-gnu"

%struct.pbl_node_t = type { i32, ptr, ptr, ptr, ptr, ptr, ptr, i32 }
%struct.pbl_message_descriptor_t = type { %struct.pbl_node_t, ptr, ptr }
%struct.pbl_enum_descriptor_t = type { %struct.pbl_node_t, ptr, ptr }
%struct._GList = type { ptr, ptr, ptr }

; Function Attrs: null_pointer_is_valid sspstrong uwtable
define hidden ptr @pbl_merge_children(ptr noundef %0, ptr noundef %1) #0 {
  %3 = alloca ptr, align 8
  %4 = alloca ptr, align 8
  %5 = alloca ptr, align 8
  %6 = alloca ptr, align 8
  %7 = alloca ptr, align 8
  %8 = alloca i32, align 4
  %9 = alloca ptr, align 8
  %10 = alloca ptr, align 8
  store ptr %0, ptr %4, align 8
  store ptr %1, ptr %5, align 8
  call void @llvm.lifetime.start.p0(i64 8, ptr %6) #13
  call void @llvm.lifetime.start.p0(i64 8, ptr %7) #13
  %11 = load ptr, ptr %4, align 8
  %12 = icmp eq ptr %11, null
  br i1 %12, label %16, label %13

13:                                               ; preds = %2
  %14 = load ptr, ptr %5, align 8
  %15 = icmp eq ptr %14, null
  br i1 %15, label %16, label %18

16:                                               ; preds = %13, %2
  %17 = load ptr, ptr %4, align 8
  store ptr %17, ptr %3, align 8
  store i32 1, ptr %8, align 4
  br label %120

18:                                               ; preds = %13
  %19 = load ptr, ptr %5, align 8
  %20 = getelementptr inbounds nuw %struct.pbl_node_t, ptr %19, i32 0, i32 4
  %21 = load ptr, ptr %20, align 8
  %22 = icmp ne ptr %21, null
  br i1 %22, label %23, label %118

23:                                               ; preds = %18
  %24 = load ptr, ptr %5, align 8
  %25 = getelementptr inbounds nuw %struct.pbl_node_t, ptr %24, i32 0, i32 4
  %26 = load ptr, ptr %25, align 8
  %27 = call ptr @g_queue_peek_head_link(ptr noundef %26)
  store ptr %27, ptr %6, align 8
  br label %28

28:                                               ; preds = %38, %23
  %29 = load ptr, ptr %6, align 8
  %30 = icmp ne ptr %29, null
  br i1 %30, label %31, label %42

31:                                               ; preds = %28
  %32 = load ptr, ptr %6, align 8
  %33 = getelementptr inbounds nuw %struct._GList, ptr %32, i32 0, i32 0
  %34 = load ptr, ptr %33, align 8
  store ptr %34, ptr %7, align 8
  %35 = load ptr, ptr %4, align 8
  %36 = load ptr, ptr %7, align 8
  %37 = call ptr @pbl_add_child(ptr noundef %35, ptr noundef %36)
  br label %38

38:                                               ; preds = %31
  %39 = load ptr, ptr %6, align 8
  %40 = getelementptr inbounds nuw %struct._GList, ptr %39, i32 0, i32 1
  %41 = load ptr, ptr %40, align 8
  store ptr %41, ptr %6, align 8
  br label %28, !llvm.loop !20

42:                                               ; preds = %28
  %43 = load ptr, ptr %5, align 8
  %44 = getelementptr inbounds nuw %struct.pbl_node_t, ptr %43, i32 0, i32 4
  %45 = load ptr, ptr %44, align 8
  call void @g_queue_free(ptr noundef %45)
  %46 = load ptr, ptr %5, align 8
  %47 = getelementptr inbounds nuw %struct.pbl_node_t, ptr %46, i32 0, i32 4
  store ptr null, ptr %47, align 8
  %48 = load ptr, ptr %5, align 8
  %49 = getelementptr inbounds nuw %struct.pbl_node_t, ptr %48, i32 0, i32 5
  %50 = load ptr, ptr %49, align 8
  %51 = icmp ne ptr %50, null
  br i1 %51, label %52, label %56

52:                                               ; preds = %42
  %53 = load ptr, ptr %5, align 8
  %54 = getelementptr inbounds nuw %struct.pbl_node_t, ptr %53, i32 0, i32 5
  %55 = load ptr, ptr %54, align 8
  call void @g_hash_table_destroy(ptr noundef %55)
  br label %56

56:                                               ; preds = %52, %42
  %57 = load ptr, ptr %5, align 8
  %58 = getelementptr inbounds nuw %struct.pbl_node_t, ptr %57, i32 0, i32 5
  store ptr null, ptr %58, align 8
  %59 = load ptr, ptr %5, align 8
  %60 = getelementptr inbounds nuw %struct.pbl_node_t, ptr %59, i32 0, i32 0
  %61 = load i32, ptr %60, align 8
  %62 = icmp eq i32 %61, 2
  br i1 %62, label %63, label %87

63:                                               ; preds = %56
  call void @llvm.lifetime.start.p0(i64 8, ptr %9) #13
  %64 = load ptr, ptr %5, align 8
  store ptr %64, ptr %9, align 8
  %65 = load ptr, ptr %9, align 8
  %66 = getelementptr inbounds nuw %struct.pbl_message_descriptor_t, ptr %65, i32 0, i32 1
  %67 = load ptr, ptr %66, align 8
  %68 = icmp ne ptr %67, null
  br i1 %68, label %69, label %75

69:                                               ; preds = %63
  %70 = load ptr, ptr %9, align 8
  %71 = getelementptr inbounds nuw %struct.pbl_message_descriptor_t, ptr %70, i32 0, i32 1
  %72 = load ptr, ptr %71, align 8
  call void @g_queue_free(ptr noundef %72)
  %73 = load ptr, ptr %9, align 8
  %74 = getelementptr inbounds nuw %struct.pbl_message_descriptor_t, ptr %73, i32 0, i32 1
  store ptr null, ptr %74, align 8
  br label %75

75:                                               ; preds = %69, %63
  %76 = load ptr, ptr %9, align 8
  %77 = getelementptr inbounds nuw %struct.pbl_message_descriptor_t, ptr %76, i32 0, i32 2
  %78 = load ptr, ptr %77, align 8
  %79 = icmp ne ptr %78, null
  br i1 %79, label %80, label %86

80:                                               ; preds = %75
  %81 = load ptr, ptr %9, align 8
  %82 = getelementptr inbounds nuw %struct.pbl_message_descriptor_t, ptr %81, i32 0, i32 2
  %83 = load ptr, ptr %82, align 8
  call void @g_hash_table_destroy(ptr noundef %83)
  %84 = load ptr, ptr %9, align 8
  %85 = getelementptr inbounds nuw %struct.pbl_message_descriptor_t, ptr %84, i32 0, i32 2
  store ptr null, ptr %85, align 8
  br label %86

86:                                               ; preds = %80, %75
  call void @llvm.lifetime.end.p0(i64 8, ptr %9) #13
  br label %117

87:                                               ; preds = %56
  %88 = load ptr, ptr %5, align 8
  %89 = getelementptr inbounds nuw %struct.pbl_node_t, ptr %88, i32 0, i32 0
  %90 = load i32, ptr %89, align 8
  %91 = icmp eq i32 %90, 6
  br i1 %91, label %92, label %116

92:                                               ; preds = %87
  call void @llvm.lifetime.start.p0(i64 8, ptr %10) #13
  %93 = load ptr, ptr %5, align 8
  store ptr %93, ptr %10, align 8
  %94 = load ptr, ptr %10, align 8
  %95 = getelementptr inbounds nuw %struct.pbl_enum_descriptor_t, ptr %94, i32 0, i32 1
  %96 = load ptr, ptr %95, align 8
  %97 = icmp ne ptr %96, null
  br i1 %97, label %98, label %104

98:                                               ; preds = %92
  %99 = load ptr, ptr %10, align 8
  %100 = getelementptr inbounds nuw %struct.pbl_enum_descriptor_t, ptr %99, i32 0, i32 1
  %101 = load ptr, ptr %100, align 8
  call void @g_queue_free(ptr noundef %101)
  %102 = load ptr, ptr %10, align 8
  %103 = getelementptr inbounds nuw %struct.pbl_enum_descriptor_t, ptr %102, i32 0, i32 1
  store ptr null, ptr %103, align 8
  br label %104

104:                                              ; preds = %98, %92
  %105 = load ptr, ptr %10, align 8
  %106 = getelementptr inbounds nuw %struct.pbl_enum_descriptor_t, ptr %105, i32 0, i32 2
  %107 = load ptr, ptr %106, align 8
  %108 = icmp ne ptr %107, null
  br i1 %108, label %109, label %115

109:                                              ; preds = %104
  %110 = load ptr, ptr %10, align 8
  %111 = getelementptr inbounds nuw %struct.pbl_enum_descriptor_t, ptr %110, i32 0, i32 2
  %112 = load ptr, ptr %111, align 8
  call void @g_hash_table_destroy(ptr noundef %112)
  %113 = load ptr, ptr %10, align 8
  %114 = getelementptr inbounds nuw %struct.pbl_enum_descriptor_t, ptr %113, i32 0, i32 2
  store ptr null, ptr %114, align 8
  br label %115

115:                                              ; preds = %109, %104
  call void @llvm.lifetime.end.p0(i64 8, ptr %10) #13
  br label %116

116:                                              ; preds = %115, %87
  br label %117

117:                                              ; preds = %116, %86
  br label %118

118:                                              ; preds = %117, %18
  %119 = load ptr, ptr %4, align 8
  store ptr %119, ptr %3, align 8
  store i32 1, ptr %8, align 4
  br label %120

120:                                              ; preds = %118, %16
  call void @llvm.lifetime.end.p0(i64 8, ptr %7) #13
  call void @llvm.lifetime.end.p0(i64 8, ptr %6) #13
  %121 = load ptr, ptr %3, align 8
  ret ptr %121
}