; Function Attrs: null_pointer_is_valid sspstrong uwtable
define hidden noundef ptr @pbl_merge_children(ptr noundef returned %0, ptr noundef captures(address_is_null) %1) local_unnamed_addr #0 {
  %3 = icmp eq ptr %0, null
  %4 = icmp eq ptr %1, null
  %or.cond = or i1 %3, %4
  br i1 %or.cond, label %36, label %5

5:                                                ; preds = %2
  %6 = getelementptr inbounds nuw i8, ptr %1, i64 32
  %7 = load ptr, ptr %6, align 8
  %.not = icmp eq ptr %7, null
  br i1 %.not, label %36, label %8

8:                                                ; preds = %5
  %9 = tail call ptr @g_queue_peek_head_link(ptr noundef nonnull %7)
  %.not4349 = icmp eq ptr %9, null
  br i1 %.not4349, label %._crit_edge, label %.lr.ph

.lr.ph:                                           ; preds = %8, %.lr.ph
  %.03450 = phi ptr [ %13, %.lr.ph ], [ %9, %8 ]
  %10 = load ptr, ptr %.03450, align 8
  %11 = tail call ptr @pbl_add_child(ptr noundef %0, ptr noundef %10)
  %12 = getelementptr inbounds nuw i8, ptr %.03450, i64 8
  %13 = load ptr, ptr %12, align 8
  %.not43 = icmp eq ptr %13, null
  br i1 %.not43, label %._crit_edge, label %.lr.ph, !llvm.loop !23

._crit_edge:                                      ; preds = %.lr.ph, %8
  %14 = load ptr, ptr %6, align 8
  tail call void @g_queue_free(ptr noundef %14)
  store ptr null, ptr %6, align 8
  %15 = getelementptr inbounds nuw i8, ptr %1, i64 40
  %16 = load ptr, ptr %15, align 8
  %.not44 = icmp eq ptr %16, null
  br i1 %.not44, label %18, label %17

17:                                               ; preds = %._crit_edge
  tail call void @g_hash_table_destroy(ptr noundef nonnull %16)
  br label %18

18:                                               ; preds = %17, %._crit_edge
  store ptr null, ptr %15, align 8
  %19 = load i32, ptr %1, align 8
  switch i32 %19, label %36 [
    i32 2, label %20
    i32 6, label %28
  ]

20:                                               ; preds = %18
  %21 = getelementptr inbounds nuw i8, ptr %1, i64 64
  %22 = load ptr, ptr %21, align 8
  %.not47 = icmp eq ptr %22, null
  br i1 %.not47, label %24, label %23

23:                                               ; preds = %20
  tail call void @g_queue_free(ptr noundef nonnull %22)
  store ptr null, ptr %21, align 8
  br label %24

24:                                               ; preds = %23, %20
  %25 = getelementptr inbounds nuw i8, ptr %1, i64 72
  %26 = load ptr, ptr %25, align 8
  %.not48 = icmp eq ptr %26, null
  br i1 %.not48, label %36, label %27

27:                                               ; preds = %24
  tail call void @g_hash_table_destroy(ptr noundef nonnull %26)
  store ptr null, ptr %25, align 8
  br label %36

28:                                               ; preds = %18
  %29 = getelementptr inbounds nuw i8, ptr %1, i64 64
  %30 = load ptr, ptr %29, align 8
  %.not45 = icmp eq ptr %30, null
  br i1 %.not45, label %32, label %31

31:                                               ; preds = %28
  tail call void @g_queue_free(ptr noundef nonnull %30)
  store ptr null, ptr %29, align 8
  br label %32

32:                                               ; preds = %31, %28
  %33 = getelementptr inbounds nuw i8, ptr %1, i64 72
  %34 = load ptr, ptr %33, align 8
  %.not46 = icmp eq ptr %34, null
  br i1 %.not46, label %36, label %35

35:                                               ; preds = %32
  tail call void @g_hash_table_destroy(ptr noundef nonnull %34)
  store ptr null, ptr %33, align 8
  br label %36

36:                                               ; preds = %5, %27, %24, %18, %35, %32, %2
  ret ptr %0
}